; ModuleID = '52/3977.c'
source_filename = "52/3977.c"
target datalayout = "e-m:e-p270:32:32-p271:32:32-p272:64:64-i64:64-f80:128-n8:16:32:64-S128"
target triple = "x86_64-pc-linux-gnu"

@.str = private unnamed_addr constant [6 x i8] c"%d %d\00", align 1
@.str.1 = private unnamed_addr constant [3 x i8] c"%d\00", align 1
@.str.2 = private unnamed_addr constant [4 x i8] c"%d \00", align 1

; Function Attrs: noinline nounwind uwtable
define dso_local i32 @main() #0 {
  %1 = alloca i32, align 4
  %2 = alloca i32, align 4
  %3 = alloca [10000 x i32], align 16
  %4 = alloca i32, align 4
  %5 = alloca i32, align 4
  store i32 0, i32* %1, align 4
  %6 = call i32 (i8*, ...) @__isoc99_scanf(i8* getelementptr inbounds ([6 x i8], [6 x i8]* @.str, i64 0, i64 0), i32* %4, i32* %5)
  store i32 0, i32* %2, align 4
  br label %7

7:                                                ; preds = %16, %0
  %8 = load i32, i32* %2, align 4
  %9 = load i32, i32* %4, align 4
  %10 = icmp slt i32 %8, %9
  br i1 %10, label %11, label %19

11:                                               ; preds = %7
  %12 = load i32, i32* %2, align 4
  %13 = sext i32 %12 to i64
  %14 = getelementptr inbounds [10000 x i32], [10000 x i32]* %3, i64 0, i64 %13
  %15 = call i32 (i8*, ...) @__isoc99_scanf(i8* getelementptr inbounds ([3 x i8], [3 x i8]* @.str.1, i64 0, i64 0), i32* %14)
  br label %16

16:                                               ; preds = %11
  %17 = load i32, i32* %2, align 4
  %18 = add nsw i32 %17, 1
  store i32 %18, i32* %2, align 4
  br label %7

19:                                               ; preds = %7
  %20 = load i32, i32* %4, align 4
  %21 = load i32, i32* %5, align 4
  %22 = sub nsw i32 %20, %21
  store i32 %22, i32* %2, align 4
  br label %23

23:                                               ; preds = %40, %19
  %24 = load i32, i32* %2, align 4
  %25 = load i32, i32* %4, align 4
  %26 = mul nsw i32 2, %25
  %27 = load i32, i32* %5, align 4
  %28 = sub nsw i32 %26, %27
  %29 = sub nsw i32 %28, 1
  %30 = icmp slt i32 %24, %29
  br i1 %30, label %31, label %43

31:                                               ; preds = %23
  %32 = getelementptr inbounds [10000 x i32], [10000 x i32]* %3, i64 0, i64 0
  %33 = load i32, i32* %2, align 4
  %34 = load i32, i32* %4, align 4
  %35 = srem i32 %33, %34
  %36 = sext i32 %35 to i64
  %37 = getelementptr inbounds i32, i32* %32, i64 %36
  %38 = load i32, i32* %37, align 4
  %39 = call i32 (i8*, ...) @printf(i8* getelementptr inbounds ([4 x i8], [4 x i8]* @.str.2, i64 0, i64 0), i32 %38)
  br label %40

40:                                               ; preds = %31
  %41 = load i32, i32* %2, align 4
  %42 = add nsw i32 %41, 1
  store i32 %42, i32* %2, align 4
  br label %23

43:                                               ; preds = %23
  %44 = getelementptr inbounds [10000 x i32], [10000 x i32]* %3, i64 0, i64 0
  %45 = load i32, i32* %4, align 4
  %46 = sext i32 %45 to i64
  %47 = getelementptr inbounds i32, i32* %44, i64 %46
  %48 = load i32, i32* %5, align 4
  %49 = sext i32 %48 to i64
  %50 = sub i64 0, %49
  %51 = getelementptr inbounds i32, i32* %47, i64 %50
  %52 = getelementptr inbounds i32, i32* %51, i64 -1
  %53 = load i32, i32* %52, align 4
  %54 = call i32 (i8*, ...) @printf(i8* getelementptr inbounds ([3 x i8], [3 x i8]* @.str.1, i64 0, i64 0), i32 %53)
  %55 = call i32 @getchar()
  %56 = call i32 @getchar()
  ret i32 0
}

declare dso_local i32 @__isoc99_scanf(i8*, ...) #1

declare dso_local i32 @printf(i8*, ...) #1

declare dso_local i32 @getchar() #1


!llvm.module.flags = !{!0}
!llvm.ident = !{!1}

!0 = !{i32 1, !"wchar_size", i32 4}
!1 = !{!"clang version 10.0.0-4ubuntu1 "}
